; Function Attrs: mustprogress uwtable
define hidden void @_ZN4cvc58internal4Subs11addEqualityENS0_12NodeTemplateILb1EEE(ptr noundef nonnull align 8 dereferenceable(56) %0, ptr noundef readonly captures(none) %1) local_unnamed_addr #6 align 2 personality ptr @__gxx_personality_v0 {
  %3 = alloca %"class.cvc5::internal::NodeTemplate", align 8
  %4 = alloca %"class.cvc5::internal::NodeTemplate", align 8
  call void @llvm.lifetime.start.p0(i64 8, ptr nonnull %3) #22
  tail call void @llvm.experimental.noalias.scope.decl(metadata !41)
  %5 = load ptr, ptr %1, align 8, !tbaa !11, !noalias !41
  %6 = getelementptr inbounds nuw i8, ptr %5, i64 8
  %7 = load i64, ptr %6, align 8, !noalias !41
  %8 = trunc i64 %7 to i32
  %9 = and i32 %8, 1023
  %10 = icmp eq i32 %9, 1023
  %11 = select i1 %10, i32 -1, i32 %9
  %12 = tail call noundef i32 @_ZN4cvc58internal4kind10metaKindOfENS1_6Kind_tE(i32 noundef %11), !noalias !41
  %13 = icmp eq i32 %12, 2
  %14 = getelementptr inbounds nuw i8, ptr %5, i64 24
  %15 = zext i1 %13 to i64
  %16 = getelementptr inbounds nuw [0 x ptr], ptr %14, i64 0, i64 %15
  %17 = load ptr, ptr %16, align 8, !tbaa !38, !noalias !41
  store ptr %17, ptr %3, align 8, !tbaa !11, !alias.scope !41
  %18 = load i64, ptr %17, align 8, !noalias !41
  %19 = lshr i64 %18, 40
  %20 = trunc nuw nsw i64 %19 to i32
  %21 = and i32 %20, 1048575
  %22 = icmp samesign ult i32 %21, 1048574
  br i1 %22, label %23, label %28, !prof !19

23:                                               ; preds = %2
  %24 = add i64 %18, 1099511627776
  %25 = and i64 %24, 1152920405095219200
  %26 = and i64 %18, -1152920405095219201
  %27 = or disjoint i64 %25, %26
  store i64 %27, ptr %17, align 8, !noalias !41
  br label %_ZNK4cvc58internal12NodeTemplateILb1EEixEi.exit

28:                                               ; preds = %2
  %29 = icmp eq i32 %21, 1048574
  br i1 %29, label %30, label %_ZNK4cvc58internal12NodeTemplateILb1EEixEi.exit, !prof !20

30:                                               ; preds = %28
  %31 = or i64 %18, 1152920405095219200
  store i64 %31, ptr %17, align 8, !noalias !41
  tail call void @_ZN4cvc58internal4expr9NodeValue20markRefCountMaxedOutEv(ptr noundef nonnull align 8 dereferenceable(24) %17), !noalias !41
  br label %_ZNK4cvc58internal12NodeTemplateILb1EEixEi.exit

_ZNK4cvc58internal12NodeTemplateILb1EEixEi.exit:  ; preds = %23, %28, %30
  call void @llvm.lifetime.start.p0(i64 8, ptr nonnull %4) #22
  tail call void @llvm.experimental.noalias.scope.decl(metadata !44)
  %32 = load ptr, ptr %1, align 8, !tbaa !11, !noalias !44
  %33 = getelementptr inbounds nuw i8, ptr %32, i64 8
  %34 = load i64, ptr %33, align 8, !noalias !44
  %35 = trunc i64 %34 to i32
  %36 = and i32 %35, 1023
  %37 = icmp eq i32 %36, 1023
  %38 = select i1 %37, i32 -1, i32 %36
  %39 = invoke noundef i32 @_ZN4cvc58internal4kind10metaKindOfENS1_6Kind_tE(i32 noundef %38)
          to label %.noexc unwind label %85

.noexc:                                           ; preds = %_ZNK4cvc58internal12NodeTemplateILb1EEixEi.exit
  %40 = icmp eq i32 %39, 2
  %spec.select.i.i = select i1 %40, i64 2, i64 1
  %41 = getelementptr inbounds nuw i8, ptr %32, i64 24
  %42 = getelementptr inbounds nuw [0 x ptr], ptr %41, i64 0, i64 %spec.select.i.i
  %43 = load ptr, ptr %42, align 8, !tbaa !38, !noalias !44
  store ptr %43, ptr %4, align 8, !tbaa !11, !alias.scope !44
  %44 = load i64, ptr %43, align 8, !noalias !44
  %45 = lshr i64 %44, 40
  %46 = trunc nuw nsw i64 %45 to i32
  %47 = and i32 %46, 1048575
  %48 = icmp samesign ult i32 %47, 1048574
  br i1 %48, label %49, label %54, !prof !19

49:                                               ; preds = %.noexc
  %50 = add i64 %44, 1099511627776
  %51 = and i64 %50, 1152920405095219200
  %52 = and i64 %44, -1152920405095219201
  %53 = or disjoint i64 %51, %52
  store i64 %53, ptr %43, align 8, !noalias !44
  br label %_ZNK4cvc58internal12NodeTemplateILb1EEixEi.exit5

54:                                               ; preds = %.noexc
  %55 = icmp eq i32 %47, 1048574
  br i1 %55, label %56, label %_ZNK4cvc58internal12NodeTemplateILb1EEixEi.exit5, !prof !20

56:                                               ; preds = %54
  %57 = or i64 %44, 1152920405095219200
  store i64 %57, ptr %43, align 8, !noalias !44
  invoke void @_ZN4cvc58internal4expr9NodeValue20markRefCountMaxedOutEv(ptr noundef nonnull align 8 dereferenceable(24) %43)
          to label %_ZNK4cvc58internal12NodeTemplateILb1EEixEi.exit5 unwind label %85

_ZNK4cvc58internal12NodeTemplateILb1EEixEi.exit5: ; preds = %54, %49, %56
  invoke void @_ZN4cvc58internal4Subs3addERKNS0_12NodeTemplateILb1EEES5_(ptr noundef nonnull align 8 dereferenceable(56) %0, ptr noundef nonnull align 8 dereferenceable(8) %3, ptr noundef nonnull align 8 dereferenceable(8) %4)
          to label %58 unwind label %87

58:                                               ; preds = %_ZNK4cvc58internal12NodeTemplateILb1EEixEi.exit5
  %59 = load ptr, ptr %4, align 8, !tbaa !11
  %60 = load i64, ptr %59, align 8
  %61 = and i64 %60, 1152920405095219200
  %.not.i.i = icmp eq i64 %61, 1152920405095219200
  br i1 %.not.i.i, label %_ZN4cvc58internal12NodeTemplateILb1EED2Ev.exit, label %62, !prof !20

62:                                               ; preds = %58
  %63 = add i64 %60, 1152920405095219200
  %64 = and i64 %63, 1152920405095219200
  %65 = and i64 %60, -1152920405095219201
  %66 = or disjoint i64 %64, %65
  store i64 %66, ptr %59, align 8
  %67 = icmp eq i64 %64, 0
  br i1 %67, label %68, label %_ZN4cvc58internal12NodeTemplateILb1EED2Ev.exit, !prof !20

68:                                               ; preds = %62
  invoke void @_ZN4cvc58internal4expr9NodeValue15markForDeletionEv(ptr noundef nonnull align 8 dereferenceable(24) %59)
          to label %_ZN4cvc58internal12NodeTemplateILb1EED2Ev.exit unwind label %69

69:                                               ; preds = %68
  %70 = landingpad { ptr, i32 }
          catch ptr null
  %71 = extractvalue { ptr, i32 } %70, 0
  call void @__clang_call_terminate(ptr %71) #24
  unreachable

_ZN4cvc58internal12NodeTemplateILb1EED2Ev.exit:   ; preds = %58, %62, %68
  call void @llvm.lifetime.end.p0(i64 8, ptr nonnull %4) #22
  %72 = load ptr, ptr %3, align 8, !tbaa !11
  %73 = load i64, ptr %72, align 8
  %74 = and i64 %73, 1152920405095219200
  %.not.i.i6 = icmp eq i64 %74, 1152920405095219200
  br i1 %.not.i.i6, label %_ZN4cvc58internal12NodeTemplateILb1EED2Ev.exit7, label %75, !prof !20

75:                                               ; preds = %_ZN4cvc58internal12NodeTemplateILb1EED2Ev.exit
  %76 = add i64 %73, 1152920405095219200
  %77 = and i64 %76, 1152920405095219200
  %78 = and i64 %73, -1152920405095219201
  %79 = or disjoint i64 %77, %78
  store i64 %79, ptr %72, align 8
  %80 = icmp eq i64 %77, 0
  br i1 %80, label %81, label %_ZN4cvc58internal12NodeTemplateILb1EED2Ev.exit7, !prof !20

81:                                               ; preds = %75
  invoke void @_ZN4cvc58internal4expr9NodeValue15markForDeletionEv(ptr noundef nonnull align 8 dereferenceable(24) %72)
          to label %_ZN4cvc58internal12NodeTemplateILb1EED2Ev.exit7 unwind label %82

82:                                               ; preds = %81
  %83 = landingpad { ptr, i32 }
          catch ptr null
  %84 = extractvalue { ptr, i32 } %83, 0
  call void @__clang_call_terminate(ptr %84) #24
  unreachable

_ZN4cvc58internal12NodeTemplateILb1EED2Ev.exit7:  ; preds = %_ZN4cvc58internal12NodeTemplateILb1EED2Ev.exit, %75, %81
  call void @llvm.lifetime.end.p0(i64 8, ptr nonnull %3) #22
  ret void

85:                                               ; preds = %56, %_ZNK4cvc58internal12NodeTemplateILb1EEixEi.exit
  %86 = landingpad { ptr, i32 }
          cleanup
  br label %89

87:                                               ; preds = %_ZNK4cvc58internal12NodeTemplateILb1EEixEi.exit5
  %88 = landingpad { ptr, i32 }
          cleanup
  call void @_ZN4cvc58internal12NodeTemplateILb1EED2Ev(ptr noundef nonnull align 8 dereferenceable(8) %4) #22
  br label %89

89:                                               ; preds = %87, %85
  %.pn = phi { ptr, i32 } [ %88, %87 ], [ %86, %85 ]
  call void @llvm.lifetime.end.p0(i64 8, ptr nonnull %4) #22
  call void @_ZN4cvc58internal12NodeTemplateILb1EED2Ev(ptr noundef nonnull align 8 dereferenceable(8) %3) #22
  call void @llvm.lifetime.end.p0(i64 8, ptr nonnull %3) #22
  resume { ptr, i32 } %.pn
}